target datalayout = "e-m:e-p270:32:32-p271:32:32-p272:64:64-i64:64-i128:128-f80:128-n8:16:32:64-S128"
target triple = "x86_64-pc-linux-gnu"

%struct.pbl_node_t = type { i32, ptr, ptr, ptr, ptr, ptr, ptr, i32 }
%struct.pbl_method_descriptor_t = type { %struct.pbl_node_t, ptr, i8, ptr, i8 }

; Function Attrs: null_pointer_is_valid sspstrong uwtable
define internal void @pbl_init_node(ptr noundef %0, ptr noundef %1, i32 noundef %2, i32 noundef %3, ptr noundef %4) #0 {
  %6 = alloca ptr, align 8
  %7 = alloca ptr, align 8
  %8 = alloca i32, align 4
  %9 = alloca i32, align 4
  %10 = alloca ptr, align 8
  store ptr %0, ptr %6, align 8
  store ptr %1, ptr %7, align 8
  store i32 %2, ptr %8, align 4
  store i32 %3, ptr %9, align 4
  store ptr %4, ptr %10, align 8
  %11 = load i32, ptr %9, align 4
  %12 = load ptr, ptr %6, align 8
  %13 = getelementptr inbounds nuw %struct.pbl_node_t, ptr %12, i32 0, i32 0
  store i32 %11, ptr %13, align 8
  %14 = load ptr, ptr %10, align 8
  %15 = call noalias ptr @g_strdup(ptr noundef %14)
  %16 = load ptr, ptr %6, align 8
  %17 = getelementptr inbounds nuw %struct.pbl_node_t, ptr %16, i32 0, i32 1
  store ptr %15, ptr %17, align 8
  %18 = load ptr, ptr %7, align 8
  %19 = load ptr, ptr %6, align 8
  %20 = getelementptr inbounds nuw %struct.pbl_node_t, ptr %19, i32 0, i32 6
  store ptr %18, ptr %20, align 8
  %21 = load i32, ptr %8, align 4
  %22 = icmp sgt i32 %21, -1
  br i1 %22, label %23, label %25

23:                                               ; preds = %5
  %24 = load i32, ptr %8, align 4
  br label %26

25:                                               ; preds = %5
  br label %26

26:                                               ; preds = %25, %23
  %27 = phi i32 [ %24, %23 ], [ -1, %25 ]
  %28 = load ptr, ptr %6, align 8
  %29 = getelementptr inbounds nuw %struct.pbl_node_t, ptr %28, i32 0, i32 7
  store i32 %27, ptr %29, align 8
  ret void
}

; Function Attrs: null_pointer_is_valid sspstrong uwtable
define hidden ptr @pbl_create_method_node(ptr noundef %0, i32 noundef %1, ptr noundef %2, ptr noundef %3, i1 noundef zeroext %4, ptr noundef %5, i1 noundef zeroext %6) #0 {
  %8 = alloca ptr, align 8
  %9 = alloca i32, align 4
  %10 = alloca ptr, align 8
  %11 = alloca ptr, align 8
  %12 = alloca i8, align 1
  %13 = alloca ptr, align 8
  %14 = alloca i8, align 1
  %15 = alloca ptr, align 8
  %16 = alloca i64, align 8
  %17 = alloca i64, align 8
  %18 = alloca ptr, align 8
  %19 = alloca ptr, align 8
  store ptr %0, ptr %8, align 8
  store i32 %1, ptr %9, align 4
  store ptr %2, ptr %10, align 8
  store ptr %3, ptr %11, align 8
  %20 = zext i1 %4 to i8
  store i8 %20, ptr %12, align 1
  store ptr %5, ptr %13, align 8
  %21 = zext i1 %6 to i8
  store i8 %21, ptr %14, align 1
  call void @llvm.lifetime.start.p0(i64 8, ptr %15) #13
  call void @llvm.lifetime.start.p0(i64 8, ptr %16) #13
  store i64 1, ptr %16, align 8
  call void @llvm.lifetime.start.p0(i64 8, ptr %17) #13
  store i64 96, ptr %17, align 8
  call void @llvm.lifetime.start.p0(i64 8, ptr %18) #13
  %22 = load i64, ptr %17, align 8
  %23 = icmp eq i64 %22, 1
  br i1 %23, label %24, label %27

24:                                               ; preds = %7
  %25 = load i64, ptr %16, align 8
  %26 = call noalias ptr @g_malloc0(i64 noundef %25) #14
  store ptr %26, ptr %18, align 8
  br label %48

27:                                               ; preds = %7
  %28 = load i64, ptr %16, align 8
  %29 = call i1 @llvm.is.constant.i64(i64 %28)
  br i1 %29, label %30, label %43

30:                                               ; preds = %27
  %31 = load i64, ptr %17, align 8
  %32 = icmp eq i64 %31, 0
  br i1 %32, label %38, label %33

33:                                               ; preds = %30
  %34 = load i64, ptr %16, align 8
  %35 = load i64, ptr %17, align 8
  %36 = udiv i64 -1, %35
  %37 = icmp ule i64 %34, %36
  br i1 %37, label %38, label %43

38:                                               ; preds = %33, %30
  %39 = load i64, ptr %16, align 8
  %40 = load i64, ptr %17, align 8
  %41 = mul i64 %39, %40
  %42 = call noalias ptr @g_malloc0(i64 noundef %41) #14
  store ptr %42, ptr %18, align 8
  br label %47

43:                                               ; preds = %33, %27
  %44 = load i64, ptr %16, align 8
  %45 = load i64, ptr %17, align 8
  %46 = call noalias ptr @g_malloc0_n(i64 noundef %44, i64 noundef %45) #15
  store ptr %46, ptr %18, align 8
  br label %47

47:                                               ; preds = %43, %38
  br label %48

48:                                               ; preds = %47, %24
  %49 = load ptr, ptr %18, align 8
  store ptr %49, ptr %19, align 8
  call void @llvm.lifetime.end.p0(i64 8, ptr %18) #13
  call void @llvm.lifetime.end.p0(i64 8, ptr %17) #13
  call void @llvm.lifetime.end.p0(i64 8, ptr %16) #13
  %50 = load ptr, ptr %19, align 8
  store ptr %50, ptr %15, align 8
  %51 = load ptr, ptr %15, align 8
  %52 = getelementptr inbounds nuw %struct.pbl_method_descriptor_t, ptr %51, i32 0, i32 0
  %53 = load ptr, ptr %8, align 8
  %54 = load i32, ptr %9, align 4
  %55 = load ptr, ptr %10, align 8
  call void @pbl_init_node(ptr noundef %52, ptr noundef %53, i32 noundef %54, i32 noundef 9, ptr noundef %55)
  %56 = load ptr, ptr %11, align 8
  %57 = call noalias ptr @g_strdup(ptr noundef %56)
  %58 = load ptr, ptr %15, align 8
  %59 = getelementptr inbounds nuw %struct.pbl_method_descriptor_t, ptr %58, i32 0, i32 1
  store ptr %57, ptr %59, align 8
  %60 = load i8, ptr %12, align 1, !range !15, !noundef !16
  %61 = trunc i8 %60 to i1
  %62 = load ptr, ptr %15, align 8
  %63 = getelementptr inbounds nuw %struct.pbl_method_descriptor_t, ptr %62, i32 0, i32 2
  %64 = zext i1 %61 to i8
  store i8 %64, ptr %63, align 8
  %65 = load ptr, ptr %13, align 8
  %66 = call noalias ptr @g_strdup(ptr noundef %65)
  %67 = load ptr, ptr %15, align 8
  %68 = getelementptr inbounds nuw %struct.pbl_method_descriptor_t, ptr %67, i32 0, i32 3
  store ptr %66, ptr %68, align 8
  %69 = load i8, ptr %14, align 1, !range !15, !noundef !16
  %70 = trunc i8 %69 to i1
  %71 = load ptr, ptr %15, align 8
  %72 = getelementptr inbounds nuw %struct.pbl_method_descriptor_t, ptr %71, i32 0, i32 4
  %73 = zext i1 %70 to i8
  store i8 %73, ptr %72, align 8
  %74 = load ptr, ptr %15, align 8
  call void @llvm.lifetime.end.p0(i64 8, ptr %15) #13
  ret ptr %74
}