; Function Attrs: null_pointer_is_valid sspstrong uwtable
define hidden noalias noundef ptr @pbl_create_method_node(ptr noundef %0, i32 noundef %1, ptr noundef %2, ptr noundef %3, i1 noundef zeroext %4, ptr noundef %5, i1 noundef zeroext %6) local_unnamed_addr #0 {
  %8 = tail call noalias dereferenceable_or_null(96) ptr @g_malloc0(i64 noundef 96) #13
  %9 = zext i1 %6 to i8
  %10 = zext i1 %4 to i8
  store i32 9, ptr %8, align 8
  %11 = tail call noalias ptr @g_strdup(ptr noundef %2)
  %12 = getelementptr inbounds nuw i8, ptr %8, i64 8
  store ptr %11, ptr %12, align 8
  %13 = getelementptr inbounds nuw i8, ptr %8, i64 48
  store ptr %0, ptr %13, align 8
  %14 = tail call i32 @llvm.smax.i32(i32 %1, i32 -1)
  %15 = getelementptr inbounds nuw i8, ptr %8, i64 56
  store i32 %14, ptr %15, align 8
  %16 = tail call noalias ptr @g_strdup(ptr noundef %3)
  %17 = getelementptr inbounds nuw i8, ptr %8, i64 64
  store ptr %16, ptr %17, align 8
  %18 = getelementptr inbounds nuw i8, ptr %8, i64 72
  store i8 %10, ptr %18, align 8
  %19 = tail call noalias ptr @g_strdup(ptr noundef %5)
  %20 = getelementptr inbounds nuw i8, ptr %8, i64 80
  store ptr %19, ptr %20, align 8
  %21 = getelementptr inbounds nuw i8, ptr %8, i64 88
  store i8 %9, ptr %21, align 8
  ret ptr %8
}